target datalayout = "e-m:e-p270:32:32-p271:32:32-p272:64:64-i64:64-i128:128-f80:128-n8:16:32:64-S128"
target triple = "x86_64-pc-linux-gnu"

%struct.Elf_Binary_t = type { ptr, ptr, i32, %struct.Elf_Header_t, ptr, ptr, ptr, ptr, ptr }
%struct.Elf_Header_t = type { [16 x i8], i32, i32, i32, i64, i64, i64, i32, i32, i32, i32, i32, i32, i32 }
%struct.Elf_DynamicEntry_Array_t = type { i64, i64, ptr }
%struct.Elf_DynamicEntry_t = type { i64, i64 }

; Function Attrs: mustprogress nounwind uwtable
define hidden void @_ZN4LIEF3ELF23destroy_dynamic_entriesEP12Elf_Binary_t(ptr noundef %0) #0 {
  %2 = alloca ptr, align 8
  %3 = alloca ptr, align 8
  %4 = alloca i64, align 8
  %5 = alloca i32, align 4
  %6 = alloca ptr, align 8
  %7 = alloca ptr, align 8
  %8 = alloca ptr, align 8
  store ptr %0, ptr %2, align 8, !tbaa !3
  call void @llvm.lifetime.start.p0(i64 8, ptr %3) #9
  %9 = load ptr, ptr %2, align 8, !tbaa !3
  %10 = getelementptr inbounds nuw %struct.Elf_Binary_t, ptr %9, i32 0, i32 6
  %11 = load ptr, ptr %10, align 8, !tbaa !10
  store ptr %11, ptr %3, align 8, !tbaa !102
  call void @llvm.lifetime.start.p0(i64 8, ptr %4) #9
  store i64 0, ptr %4, align 8, !tbaa !21
  br label %12

12:                                               ; preds = %73, %1
  %13 = load ptr, ptr %3, align 8, !tbaa !102
  %14 = load i64, ptr %4, align 8, !tbaa !21
  %15 = getelementptr inbounds nuw ptr, ptr %13, i64 %14
  %16 = load ptr, ptr %15, align 8, !tbaa !30
  %17 = icmp ne ptr %16, null
  br i1 %17, label %19, label %18

18:                                               ; preds = %12
  store i32 2, ptr %5, align 4
  call void @llvm.lifetime.end.p0(i64 8, ptr %4) #9
  br label %76

19:                                               ; preds = %12
  %20 = load ptr, ptr %3, align 8, !tbaa !102
  %21 = load i64, ptr %4, align 8, !tbaa !21
  %22 = getelementptr inbounds nuw ptr, ptr %20, i64 %21
  %23 = load ptr, ptr %22, align 8, !tbaa !30
  %24 = getelementptr inbounds nuw %struct.Elf_DynamicEntry_t, ptr %23, i32 0, i32 0
  %25 = load i64, ptr %24, align 8, !tbaa !68
  switch i64 %25, label %67 [
    i64 1, label %26
    i64 14, label %31
    i64 15, label %36
    i64 29, label %41
    i64 25, label %46
    i64 26, label %46
    i64 32, label %46
    i64 30, label %55
    i64 1879048187, label %61
  ]

26:                                               ; preds = %19
  %27 = load ptr, ptr %3, align 8, !tbaa !102
  %28 = load i64, ptr %4, align 8, !tbaa !21
  %29 = getelementptr inbounds nuw ptr, ptr %27, i64 %28
  %30 = load ptr, ptr %29, align 8, !tbaa !30
  call void @free(ptr noundef %30) #9
  br label %72

31:                                               ; preds = %19
  %32 = load ptr, ptr %3, align 8, !tbaa !102
  %33 = load i64, ptr %4, align 8, !tbaa !21
  %34 = getelementptr inbounds nuw ptr, ptr %32, i64 %33
  %35 = load ptr, ptr %34, align 8, !tbaa !30
  call void @free(ptr noundef %35) #9
  br label %72

36:                                               ; preds = %19
  %37 = load ptr, ptr %3, align 8, !tbaa !102
  %38 = load i64, ptr %4, align 8, !tbaa !21
  %39 = getelementptr inbounds nuw ptr, ptr %37, i64 %38
  %40 = load ptr, ptr %39, align 8, !tbaa !30
  call void @free(ptr noundef %40) #9
  br label %72

41:                                               ; preds = %19
  %42 = load ptr, ptr %3, align 8, !tbaa !102
  %43 = load i64, ptr %4, align 8, !tbaa !21
  %44 = getelementptr inbounds nuw ptr, ptr %42, i64 %43
  %45 = load ptr, ptr %44, align 8, !tbaa !30
  call void @free(ptr noundef %45) #9
  br label %72

46:                                               ; preds = %19, %19, %19
  call void @llvm.lifetime.start.p0(i64 8, ptr %6) #9
  %47 = load ptr, ptr %3, align 8, !tbaa !102
  %48 = load i64, ptr %4, align 8, !tbaa !21
  %49 = getelementptr inbounds nuw ptr, ptr %47, i64 %48
  %50 = load ptr, ptr %49, align 8, !tbaa !30
  store ptr %50, ptr %6, align 8, !tbaa !50
  %51 = load ptr, ptr %6, align 8, !tbaa !50
  %52 = getelementptr inbounds nuw %struct.Elf_DynamicEntry_Array_t, ptr %51, i32 0, i32 2
  %53 = load ptr, ptr %52, align 8, !tbaa !58
  call void @free(ptr noundef %53) #9
  %54 = load ptr, ptr %6, align 8, !tbaa !50
  call void @free(ptr noundef %54) #9
  store i32 5, ptr %5, align 4
  call void @llvm.lifetime.end.p0(i64 8, ptr %6) #9
  br label %72

55:                                               ; preds = %19
  call void @llvm.lifetime.start.p0(i64 8, ptr %7) #9
  %56 = load ptr, ptr %3, align 8, !tbaa !102
  %57 = load i64, ptr %4, align 8, !tbaa !21
  %58 = getelementptr inbounds nuw ptr, ptr %56, i64 %57
  %59 = load ptr, ptr %58, align 8, !tbaa !30
  store ptr %59, ptr %7, align 8, !tbaa !61
  %60 = load ptr, ptr %7, align 8, !tbaa !61
  call void @free(ptr noundef %60) #9
  store i32 5, ptr %5, align 4
  call void @llvm.lifetime.end.p0(i64 8, ptr %7) #9
  br label %72

61:                                               ; preds = %19
  call void @llvm.lifetime.start.p0(i64 8, ptr %8) #9
  %62 = load ptr, ptr %3, align 8, !tbaa !102
  %63 = load i64, ptr %4, align 8, !tbaa !21
  %64 = getelementptr inbounds nuw ptr, ptr %62, i64 %63
  %65 = load ptr, ptr %64, align 8, !tbaa !30
  store ptr %65, ptr %8, align 8, !tbaa !61
  %66 = load ptr, ptr %8, align 8, !tbaa !61
  call void @free(ptr noundef %66) #9
  store i32 5, ptr %5, align 4
  call void @llvm.lifetime.end.p0(i64 8, ptr %8) #9
  br label %72

67:                                               ; preds = %19
  %68 = load ptr, ptr %3, align 8, !tbaa !102
  %69 = load i64, ptr %4, align 8, !tbaa !21
  %70 = getelementptr inbounds nuw ptr, ptr %68, i64 %69
  %71 = load ptr, ptr %70, align 8, !tbaa !30
  call void @free(ptr noundef %71) #9
  br label %72

72:                                               ; preds = %67, %61, %55, %46, %41, %36, %31, %26
  br label %73

73:                                               ; preds = %72
  %74 = load i64, ptr %4, align 8, !tbaa !21
  %75 = add i64 %74, 1
  store i64 %75, ptr %4, align 8, !tbaa !21
  br label %12, !llvm.loop !103

76:                                               ; preds = %18
  %77 = load ptr, ptr %2, align 8, !tbaa !3
  %78 = getelementptr inbounds nuw %struct.Elf_Binary_t, ptr %77, i32 0, i32 6
  %79 = load ptr, ptr %78, align 8, !tbaa !10
  call void @free(ptr noundef %79) #9
  call void @llvm.lifetime.end.p0(i64 8, ptr %3) #9
  ret void
}