; Function Attrs: mustprogress nounwind uwtable
define hidden void @_ZN4LIEF3ELF23destroy_dynamic_entriesEP12Elf_Binary_t(ptr noundef readonly captures(none) %0) local_unnamed_addr #0 {
  %2 = getelementptr inbounds nuw i8, ptr %0, i64 128
  %3 = load ptr, ptr %2, align 8, !tbaa !13
  %4 = load ptr, ptr %3, align 8, !tbaa !24
  %.not27 = icmp eq ptr %4, null
  br i1 %.not27, label %._crit_edge, label %.lr.ph

._crit_edge.loopexit:                             ; preds = %11
  %.pre = load ptr, ptr %2, align 8, !tbaa !13
  br label %._crit_edge

._crit_edge:                                      ; preds = %._crit_edge.loopexit, %1
  %5 = phi ptr [ %.pre, %._crit_edge.loopexit ], [ %3, %1 ]
  tail call void @free(ptr noundef %5) #8
  ret void

.lr.ph:                                           ; preds = %1, %11
  %6 = phi ptr [ %14, %11 ], [ %4, %1 ]
  %.028 = phi i64 [ %12, %11 ], [ 0, %1 ]
  %7 = load i64, ptr %6, align 8, !tbaa !69
  switch i64 %7, label %11 [
    i64 32, label %8
    i64 26, label %8
    i64 25, label %8
  ]

8:                                                ; preds = %.lr.ph, %.lr.ph, %.lr.ph
  %9 = getelementptr inbounds nuw i8, ptr %6, i64 16
  %10 = load ptr, ptr %9, align 8, !tbaa !59
  tail call void @free(ptr noundef %10) #8
  br label %11

11:                                               ; preds = %.lr.ph, %8
  tail call void @free(ptr noundef nonnull %6) #8
  %12 = add i64 %.028, 1
  %13 = getelementptr inbounds nuw ptr, ptr %3, i64 %12
  %14 = load ptr, ptr %13, align 8, !tbaa !24
  %.not = icmp eq ptr %14, null
  br i1 %.not, label %._crit_edge.loopexit, label %.lr.ph, !llvm.loop !74
}